; Function Attrs: mustprogress nounwind uwtable
define hidden void @_ZN17opencv_tensorflow11FunctionDef15clear_signatureEv(ptr noundef nonnull align 8 captures(none) dereferenceable(56) %0) local_unnamed_addr #5 align 2 {
  %2 = getelementptr inbounds nuw i8, ptr %0, i64 8
  %3 = load i64, ptr %2, align 8, !tbaa !3
  %4 = and i64 %3, 1
  %.not.i = icmp eq i64 %4, 0
  %5 = and i64 %3, -4
  %6 = inttoptr i64 %5 to ptr
  br i1 %.not.i, label %_ZNK6google8protobuf11MessageLite21GetArenaForAllocationEv.exit, label %7, !prof !17

7:                                                ; preds = %1
  %8 = load ptr, ptr %6, align 8, !tbaa !18
  br label %_ZNK6google8protobuf11MessageLite21GetArenaForAllocationEv.exit

_ZNK6google8protobuf11MessageLite21GetArenaForAllocationEv.exit: ; preds = %1, %7
  %.0.i.i = phi ptr [ %8, %7 ], [ %6, %1 ]
  %9 = icmp eq ptr %.0.i.i, null
  br i1 %9, label %10, label %14

10:                                               ; preds = %_ZNK6google8protobuf11MessageLite21GetArenaForAllocationEv.exit
  %11 = getelementptr inbounds nuw i8, ptr %0, i64 40
  %12 = load ptr, ptr %11, align 8, !tbaa !195
  %.not = icmp eq ptr %12, null
  br i1 %.not, label %14, label %13

13:                                               ; preds = %10
  tail call void @_ZN17opencv_tensorflow5OpDefD1Ev(ptr noundef nonnull align 8 dereferenceable(128) %12) #30
  tail call void @_ZdlPv(ptr noundef nonnull %12) #31
  br label %14

14:                                               ; preds = %13, %10, %_ZNK6google8protobuf11MessageLite21GetArenaForAllocationEv.exit
  %15 = getelementptr inbounds nuw i8, ptr %0, i64 40
  store ptr null, ptr %15, align 8, !tbaa !195
  ret void
}